target datalayout = "e-m:e-p270:32:32-p271:32:32-p272:64:64-i64:64-i128:128-f80:128-n8:16:32:64-S128"
target triple = "x86_64-unknown-linux-gnu"

%"class.QuantLib::Date" = type { i64 }

; Function Attrs: inlinehint mustprogress uwtable
define linkonce_odr noundef i32 @_ZNK8QuantLib4Date9dayOfYearEv(ptr noundef nonnull align 8 dereferenceable(8) %this) #6 comdat align 2 {
entry:
  %this.addr = alloca ptr, align 8
  store ptr %this, ptr %this.addr, align 8, !tbaa !3
  %this1 = load ptr, ptr %this.addr, align 8
  %serialNumber_ = getelementptr inbounds nuw %"class.QuantLib::Date", ptr %this1, i32 0, i32 0
  %0 = load i64, ptr %serialNumber_, align 8, !tbaa !21
  %call = call noundef i32 @_ZNK8QuantLib4Date4yearEv(ptr noundef nonnull align 8 dereferenceable(8) %this1)
  %call2 = call noundef i64 @_ZN8QuantLib4Date10yearOffsetEi(i32 noundef %call)
  %sub = sub nsw i64 %0, %call2
  %conv = trunc i64 %sub to i32
  ret i32 %conv
}

; Function Attrs: inlinehint mustprogress uwtable
define linkonce_odr noundef i32 @_ZNK8QuantLib4Date10dayOfMonthEv(ptr noundef nonnull align 8 dereferenceable(8) %this) #6 comdat align 2 {
entry:
  %this.addr = alloca ptr, align 8
  store ptr %this, ptr %this.addr, align 8, !tbaa !3
  %this1 = load ptr, ptr %this.addr, align 8
  %call = call noundef i32 @_ZNK8QuantLib4Date9dayOfYearEv(ptr noundef nonnull align 8 dereferenceable(8) %this1)
  %call2 = call noundef i32 @_ZNK8QuantLib4Date5monthEv(ptr noundef nonnull align 8 dereferenceable(8) %this1)
  %call3 = call noundef i32 @_ZNK8QuantLib4Date4yearEv(ptr noundef nonnull align 8 dereferenceable(8) %this1)
  %call4 = call noundef zeroext i1 @_ZN8QuantLib4Date6isLeapEi(i32 noundef %call3)
  %call5 = call noundef i32 @_ZN8QuantLib4Date11monthOffsetENS_5MonthEb(i32 noundef %call2, i1 noundef zeroext %call4)
  %sub = sub nsw i32 %call, %call5
  ret i32 %sub
}

; Function Attrs: inlinehint mustprogress nounwind uwtable
define linkonce_odr noundef i32 @_ZNK8QuantLib4Date7weekdayEv(ptr noundef nonnull align 8 dereferenceable(8) %this) #4 comdat align 2 {
entry:
  %this.addr = alloca ptr, align 8
  %w = alloca i32, align 4
  store ptr %this, ptr %this.addr, align 8, !tbaa !3
  %this1 = load ptr, ptr %this.addr, align 8
  call void @llvm.lifetime.start.p0(i64 4, ptr %w) #2
  %serialNumber_ = getelementptr inbounds nuw %"class.QuantLib::Date", ptr %this1, i32 0, i32 0
  %0 = load i64, ptr %serialNumber_, align 8, !tbaa !21
  %rem = srem i64 %0, 7
  %conv = trunc i64 %rem to i32
  store i32 %conv, ptr %w, align 4, !tbaa !17
  %1 = load i32, ptr %w, align 4, !tbaa !17
  %cmp = icmp eq i32 %1, 0
  br i1 %cmp, label %cond.true, label %cond.false

cond.true:                                        ; preds = %entry
  br label %cond.end

cond.false:                                       ; preds = %entry
  %2 = load i32, ptr %w, align 4, !tbaa !17
  br label %cond.end

cond.end:                                         ; preds = %cond.false, %cond.true
  %cond = phi i32 [ 7, %cond.true ], [ %2, %cond.false ]
  call void @llvm.lifetime.end.p0(i64 4, ptr %w) #2
  ret i32 %cond
}

; Function Attrs: mustprogress uwtable
define noundef zeroext i1 @_ZNK8QuantLib6Russia14SettlementImpl13isBusinessDayERKNS_4DateE(ptr noundef nonnull align 8 dereferenceable(104) %this, ptr noundef nonnull align 8 dereferenceable(8) %date) unnamed_addr #0 align 2 {
entry:
  %retval = alloca i1, align 1
  %this.addr = alloca ptr, align 8
  %date.addr = alloca ptr, align 8
  %w = alloca i32, align 4
  %d = alloca i32, align 4
  %m = alloca i32, align 4
  %y = alloca i32, align 4
  %cleanup.dest.slot = alloca i32, align 4
  store ptr %this, ptr %this.addr, align 8, !tbaa !3
  store ptr %date, ptr %date.addr, align 8, !tbaa !3
  %this1 = load ptr, ptr %this.addr, align 8
  call void @llvm.lifetime.start.p0(i64 4, ptr %w) #2
  %0 = load ptr, ptr %date.addr, align 8, !tbaa !3
  %call = call noundef i32 @_ZNK8QuantLib4Date7weekdayEv(ptr noundef nonnull align 8 dereferenceable(8) %0)
  store i32 %call, ptr %w, align 4, !tbaa !15
  call void @llvm.lifetime.start.p0(i64 4, ptr %d) #2
  %1 = load ptr, ptr %date.addr, align 8, !tbaa !3
  %call2 = call noundef i32 @_ZNK8QuantLib4Date10dayOfMonthEv(ptr noundef nonnull align 8 dereferenceable(8) %1)
  store i32 %call2, ptr %d, align 4, !tbaa !17
  call void @llvm.lifetime.start.p0(i64 4, ptr %m) #2
  %2 = load ptr, ptr %date.addr, align 8, !tbaa !3
  %call3 = call noundef i32 @_ZNK8QuantLib4Date5monthEv(ptr noundef nonnull align 8 dereferenceable(8) %2)
  store i32 %call3, ptr %m, align 4, !tbaa !19
  call void @llvm.lifetime.start.p0(i64 4, ptr %y) #2
  %3 = load ptr, ptr %date.addr, align 8, !tbaa !3
  %call4 = call noundef i32 @_ZNK8QuantLib4Date4yearEv(ptr noundef nonnull align 8 dereferenceable(8) %3)
  store i32 %call4, ptr %y, align 4, !tbaa !17
  %4 = load i32, ptr %w, align 4, !tbaa !15
  %call5 = call noundef zeroext i1 @_ZNK8QuantLib8Calendar12OrthodoxImpl9isWeekendENS_7WeekdayE(ptr noundef nonnull align 8 dereferenceable(104) %this1, i32 noundef %4)
  br i1 %call5, label %if.then, label %lor.lhs.false

lor.lhs.false:                                    ; preds = %entry
  %5 = load i32, ptr %y, align 4, !tbaa !17
  %cmp = icmp sle i32 %5, 2005
  br i1 %cmp, label %land.lhs.true, label %lor.lhs.false9

land.lhs.true:                                    ; preds = %lor.lhs.false
  %6 = load i32, ptr %d, align 4, !tbaa !17
  %cmp6 = icmp sle i32 %6, 2
  br i1 %cmp6, label %land.lhs.true7, label %lor.lhs.false9

land.lhs.true7:                                   ; preds = %land.lhs.true
  %7 = load i32, ptr %m, align 4, !tbaa !19
  %cmp8 = icmp eq i32 %7, 1
  br i1 %cmp8, label %if.then, label %lor.lhs.false9

lor.lhs.false9:                                   ; preds = %land.lhs.true7, %land.lhs.true, %lor.lhs.false
  %8 = load i32, ptr %y, align 4, !tbaa !17
  %cmp10 = icmp sge i32 %8, 2005
  br i1 %cmp10, label %land.lhs.true11, label %lor.lhs.false15

land.lhs.true11:                                  ; preds = %lor.lhs.false9
  %9 = load i32, ptr %d, align 4, !tbaa !17
  %cmp12 = icmp sle i32 %9, 5
  br i1 %cmp12, label %land.lhs.true13, label %lor.lhs.false15

land.lhs.true13:                                  ; preds = %land.lhs.true11
  %10 = load i32, ptr %m, align 4, !tbaa !19
  %cmp14 = icmp eq i32 %10, 1
  br i1 %cmp14, label %if.then, label %lor.lhs.false15

lor.lhs.false15:                                  ; preds = %land.lhs.true13, %land.lhs.true11, %lor.lhs.false9
  %11 = load i32, ptr %y, align 4, !tbaa !17
  %cmp16 = icmp eq i32 %11, 2012
  br i1 %cmp16, label %land.lhs.true17, label %lor.lhs.false21

land.lhs.true17:                                  ; preds = %lor.lhs.false15
  %12 = load i32, ptr %d, align 4, !tbaa !17
  %cmp18 = icmp eq i32 %12, 6
  br i1 %cmp18, label %land.lhs.true19, label %lor.lhs.false21

land.lhs.true19:                                  ; preds = %land.lhs.true17
  %13 = load i32, ptr %m, align 4, !tbaa !19
  %cmp20 = icmp eq i32 %13, 1
  br i1 %cmp20, label %if.then, label %lor.lhs.false21

lor.lhs.false21:                                  ; preds = %land.lhs.true19, %land.lhs.true17, %lor.lhs.false15
  %14 = load i32, ptr %d, align 4, !tbaa !17
  %cmp22 = icmp eq i32 %14, 7
  br i1 %cmp22, label %land.lhs.true29, label %lor.lhs.false23

lor.lhs.false23:                                  ; preds = %lor.lhs.false21
  %15 = load i32, ptr %d, align 4, !tbaa !17
  %cmp24 = icmp eq i32 %15, 8
  br i1 %cmp24, label %land.lhs.true27, label %lor.lhs.false25

lor.lhs.false25:                                  ; preds = %lor.lhs.false23
  %16 = load i32, ptr %d, align 4, !tbaa !17
  %cmp26 = icmp eq i32 %16, 9
  br i1 %cmp26, label %land.lhs.true27, label %lor.lhs.false31

land.lhs.true27:                                  ; preds = %lor.lhs.false25, %lor.lhs.false23
  %17 = load i32, ptr %w, align 4, !tbaa !15
  %cmp28 = icmp eq i32 %17, 2
  br i1 %cmp28, label %land.lhs.true29, label %lor.lhs.false31

land.lhs.true29:                                  ; preds = %land.lhs.true27, %lor.lhs.false21
  %18 = load i32, ptr %m, align 4, !tbaa !19
  %cmp30 = icmp eq i32 %18, 1
  br i1 %cmp30, label %if.then, label %lor.lhs.false31

lor.lhs.false31:                                  ; preds = %land.lhs.true29, %land.lhs.true27, %lor.lhs.false25
  %19 = load i32, ptr %d, align 4, !tbaa !17
  %cmp32 = icmp eq i32 %19, 23
  br i1 %cmp32, label %land.lhs.true39, label %lor.lhs.false33

lor.lhs.false33:                                  ; preds = %lor.lhs.false31
  %20 = load i32, ptr %d, align 4, !tbaa !17
  %cmp34 = icmp eq i32 %20, 24
  br i1 %cmp34, label %land.lhs.true37, label %lor.lhs.false35

lor.lhs.false35:                                  ; preds = %lor.lhs.false33
  %21 = load i32, ptr %d, align 4, !tbaa !17
  %cmp36 = icmp eq i32 %21, 25
  br i1 %cmp36, label %land.lhs.true37, label %lor.lhs.false41

land.lhs.true37:                                  ; preds = %lor.lhs.false35, %lor.lhs.false33
  %22 = load i32, ptr %w, align 4, !tbaa !15
  %cmp38 = icmp eq i32 %22, 2
  br i1 %cmp38, label %land.lhs.true39, label %lor.lhs.false41

land.lhs.true39:                                  ; preds = %land.lhs.true37, %lor.lhs.false31
  %23 = load i32, ptr %m, align 4, !tbaa !19
  %cmp40 = icmp eq i32 %23, 2
  br i1 %cmp40, label %if.then, label %lor.lhs.false41

lor.lhs.false41:                                  ; preds = %land.lhs.true39, %land.lhs.true37, %lor.lhs.false35
  %24 = load i32, ptr %d, align 4, !tbaa !17
  %cmp42 = icmp eq i32 %24, 8
  br i1 %cmp42, label %land.lhs.true49, label %lor.lhs.false43

lor.lhs.false43:                                  ; preds = %lor.lhs.false41
  %25 = load i32, ptr %d, align 4, !tbaa !17
  %cmp44 = icmp eq i32 %25, 9
  br i1 %cmp44, label %land.lhs.true47, label %lor.lhs.false45

lor.lhs.false45:                                  ; preds = %lor.lhs.false43
  %26 = load i32, ptr %d, align 4, !tbaa !17
  %cmp46 = icmp eq i32 %26, 10
  br i1 %cmp46, label %land.lhs.true47, label %lor.lhs.false51

land.lhs.true47:                                  ; preds = %lor.lhs.false45, %lor.lhs.false43
  %27 = load i32, ptr %w, align 4, !tbaa !15
  %cmp48 = icmp eq i32 %27, 2
  br i1 %cmp48, label %land.lhs.true49, label %lor.lhs.false51

land.lhs.true49:                                  ; preds = %land.lhs.true47, %lor.lhs.false41
  %28 = load i32, ptr %m, align 4, !tbaa !19
  %cmp50 = icmp eq i32 %28, 3
  br i1 %cmp50, label %if.then, label %lor.lhs.false51

lor.lhs.false51:                                  ; preds = %land.lhs.true49, %land.lhs.true47, %lor.lhs.false45
  %29 = load i32, ptr %d, align 4, !tbaa !17
  %cmp52 = icmp eq i32 %29, 1
  br i1 %cmp52, label %land.lhs.true59, label %lor.lhs.false53

lor.lhs.false53:                                  ; preds = %lor.lhs.false51
  %30 = load i32, ptr %d, align 4, !tbaa !17
  %cmp54 = icmp eq i32 %30, 2
  br i1 %cmp54, label %land.lhs.true57, label %lor.lhs.false55

lor.lhs.false55:                                  ; preds = %lor.lhs.false53
  %31 = load i32, ptr %d, align 4, !tbaa !17
  %cmp56 = icmp eq i32 %31, 3
  br i1 %cmp56, label %land.lhs.true57, label %lor.lhs.false61

land.lhs.true57:                                  ; preds = %lor.lhs.false55, %lor.lhs.false53
  %32 = load i32, ptr %w, align 4, !tbaa !15
  %cmp58 = icmp eq i32 %32, 2
  br i1 %cmp58, label %land.lhs.true59, label %lor.lhs.false61

land.lhs.true59:                                  ; preds = %land.lhs.true57, %lor.lhs.false51
  %33 = load i32, ptr %m, align 4, !tbaa !19
  %cmp60 = icmp eq i32 %33, 5
  br i1 %cmp60, label %if.then, label %lor.lhs.false61

lor.lhs.false61:                                  ; preds = %land.lhs.true59, %land.lhs.true57, %lor.lhs.false55
  %34 = load i32, ptr %d, align 4, !tbaa !17
  %cmp62 = icmp eq i32 %34, 9
  br i1 %cmp62, label %land.lhs.true69, label %lor.lhs.false63

lor.lhs.false63:                                  ; preds = %lor.lhs.false61
  %35 = load i32, ptr %d, align 4, !tbaa !17
  %cmp64 = icmp eq i32 %35, 10
  br i1 %cmp64, label %land.lhs.true67, label %lor.lhs.false65

lor.lhs.false65:                                  ; preds = %lor.lhs.false63
  %36 = load i32, ptr %d, align 4, !tbaa !17
  %cmp66 = icmp eq i32 %36, 11
  br i1 %cmp66, label %land.lhs.true67, label %lor.lhs.false71

land.lhs.true67:                                  ; preds = %lor.lhs.false65, %lor.lhs.false63
  %37 = load i32, ptr %w, align 4, !tbaa !15
  %cmp68 = icmp eq i32 %37, 2
  br i1 %cmp68, label %land.lhs.true69, label %lor.lhs.false71

land.lhs.true69:                                  ; preds = %land.lhs.true67, %lor.lhs.false61
  %38 = load i32, ptr %m, align 4, !tbaa !19
  %cmp70 = icmp eq i32 %38, 5
  br i1 %cmp70, label %if.then, label %lor.lhs.false71

lor.lhs.false71:                                  ; preds = %land.lhs.true69, %land.lhs.true67, %lor.lhs.false65
  %39 = load i32, ptr %d, align 4, !tbaa !17
  %cmp72 = icmp eq i32 %39, 12
  br i1 %cmp72, label %land.lhs.true79, label %lor.lhs.false73

lor.lhs.false73:                                  ; preds = %lor.lhs.false71
  %40 = load i32, ptr %d, align 4, !tbaa !17
  %cmp74 = icmp eq i32 %40, 13
  br i1 %cmp74, label %land.lhs.true77, label %lor.lhs.false75

lor.lhs.false75:                                  ; preds = %lor.lhs.false73
  %41 = load i32, ptr %d, align 4, !tbaa !17
  %cmp76 = icmp eq i32 %41, 14
  br i1 %cmp76, label %land.lhs.true77, label %lor.lhs.false81

land.lhs.true77:                                  ; preds = %lor.lhs.false75, %lor.lhs.false73
  %42 = load i32, ptr %w, align 4, !tbaa !15
  %cmp78 = icmp eq i32 %42, 2
  br i1 %cmp78, label %land.lhs.true79, label %lor.lhs.false81

land.lhs.true79:                                  ; preds = %land.lhs.true77, %lor.lhs.false71
  %43 = load i32, ptr %m, align 4, !tbaa !19
  %cmp80 = icmp eq i32 %43, 6
  br i1 %cmp80, label %if.then, label %lor.lhs.false81

lor.lhs.false81:                                  ; preds = %land.lhs.true79, %land.lhs.true77, %lor.lhs.false75
  %44 = load i32, ptr %d, align 4, !tbaa !17
  %cmp82 = icmp eq i32 %44, 4
  br i1 %cmp82, label %land.lhs.true89, label %lor.lhs.false83

lor.lhs.false83:                                  ; preds = %lor.lhs.false81
  %45 = load i32, ptr %d, align 4, !tbaa !17
  %cmp84 = icmp eq i32 %45, 5
  br i1 %cmp84, label %land.lhs.true87, label %lor.lhs.false85

lor.lhs.false85:                                  ; preds = %lor.lhs.false83
  %46 = load i32, ptr %d, align 4, !tbaa !17
  %cmp86 = icmp eq i32 %46, 6
  br i1 %cmp86, label %land.lhs.true87, label %if.end

land.lhs.true87:                                  ; preds = %lor.lhs.false85, %lor.lhs.false83
  %47 = load i32, ptr %w, align 4, !tbaa !15
  %cmp88 = icmp eq i32 %47, 2
  br i1 %cmp88, label %land.lhs.true89, label %if.end

land.lhs.true89:                                  ; preds = %land.lhs.true87, %lor.lhs.false81
  %48 = load i32, ptr %m, align 4, !tbaa !19
  %cmp90 = icmp eq i32 %48, 11
  br i1 %cmp90, label %if.then, label %if.end

if.then:                                          ; preds = %land.lhs.true89, %land.lhs.true79, %land.lhs.true69, %land.lhs.true59, %land.lhs.true49, %land.lhs.true39, %land.lhs.true29, %land.lhs.true19, %land.lhs.true13, %land.lhs.true7, %entry
  store i1 false, ptr %retval, align 1
  store i32 1, ptr %cleanup.dest.slot, align 4
  br label %cleanup

if.end:                                           ; preds = %land.lhs.true89, %land.lhs.true87, %lor.lhs.false85
  %49 = load i32, ptr %d, align 4, !tbaa !17
  %50 = load i32, ptr %m, align 4, !tbaa !19
  %51 = load i32, ptr %y, align 4, !tbaa !17
  %call91 = call noundef zeroext i1 @_ZN8QuantLib12_GLOBAL__N_128isExtraHolidaySettlementImplEiNS_5MonthEi(i32 noundef %49, i32 noundef %50, i32 noundef %51)
  br i1 %call91, label %if.then92, label %if.end93

if.then92:                                        ; preds = %if.end
  store i1 false, ptr %retval, align 1
  store i32 1, ptr %cleanup.dest.slot, align 4
  br label %cleanup

if.end93:                                         ; preds = %if.end
  store i1 true, ptr %retval, align 1
  store i32 1, ptr %cleanup.dest.slot, align 4
  br label %cleanup

cleanup:                                          ; preds = %if.end93, %if.then92, %if.then
  call void @llvm.lifetime.end.p0(i64 4, ptr %y) #2
  call void @llvm.lifetime.end.p0(i64 4, ptr %m) #2
  call void @llvm.lifetime.end.p0(i64 4, ptr %d) #2
  call void @llvm.lifetime.end.p0(i64 4, ptr %w) #2
  %52 = load i1, ptr %retval, align 1
  ret i1 %52
}