; Function Attrs: mustprogress uwtable
define noundef zeroext i1 @_ZNK8QuantLib6Russia14SettlementImpl13isBusinessDayERKNS_4DateE(ptr noundef nonnull align 8 dereferenceable(104) %this, ptr noundef nonnull align 8 dereferenceable(8) %date) unnamed_addr #0 align 2 {
entry:
  %0 = load i64, ptr %date, align 8, !tbaa !30
  %rem.i = srem i64 %0, 7
  %conv.i = trunc nsw i64 %rem.i to i32
  %cmp.i = icmp eq i64 %rem.i, 0
  %cond.i = select i1 %cmp.i, i32 7, i32 %conv.i
  %call.i.i = tail call noundef i32 @_ZNK8QuantLib4Date4yearEv(ptr noundef nonnull align 8 dereferenceable(8) %date)
  %call2.i.i = tail call noundef i64 @_ZN8QuantLib4Date10yearOffsetEi(i32 noundef %call.i.i)
  %sub.i.i = sub nsw i64 %0, %call2.i.i
  %conv.i.i = trunc i64 %sub.i.i to i32
  %call2.i = tail call noundef i32 @_ZNK8QuantLib4Date5monthEv(ptr noundef nonnull align 8 dereferenceable(8) %date)
  %call3.i = tail call noundef i32 @_ZNK8QuantLib4Date4yearEv(ptr noundef nonnull align 8 dereferenceable(8) %date)
  %call4.i = tail call noundef zeroext i1 @_ZN8QuantLib4Date6isLeapEi(i32 noundef %call3.i)
  %call5.i = tail call noundef i32 @_ZN8QuantLib4Date11monthOffsetENS_5MonthEb(i32 noundef %call2.i, i1 noundef zeroext %call4.i)
  %sub.i = sub nsw i32 %conv.i.i, %call5.i
  %call3 = tail call noundef i32 @_ZNK8QuantLib4Date5monthEv(ptr noundef nonnull align 8 dereferenceable(8) %date)
  %call4 = tail call noundef i32 @_ZNK8QuantLib4Date4yearEv(ptr noundef nonnull align 8 dereferenceable(8) %date)
  %call5 = tail call noundef zeroext i1 @_ZNK8QuantLib8Calendar12OrthodoxImpl9isWeekendENS_7WeekdayE(ptr noundef nonnull align 8 dereferenceable(104) %this, i32 noundef %cond.i)
  br i1 %call5, label %cleanup, label %lor.lhs.false

lor.lhs.false:                                    ; preds = %entry
  %cmp = icmp slt i32 %call4, 2006
  %cmp6 = icmp slt i32 %sub.i, 3
  %or.cond = and i1 %cmp6, %cmp
  %cmp8 = icmp eq i32 %call3, 1
  %or.cond1 = and i1 %cmp8, %or.cond
  br i1 %or.cond1, label %cleanup, label %lor.lhs.false9

lor.lhs.false9:                                   ; preds = %lor.lhs.false
  %cmp10 = icmp sgt i32 %call4, 2004
  %cmp12 = icmp slt i32 %sub.i, 6
  %or.cond2 = and i1 %cmp12, %cmp10
  %or.cond3 = and i1 %cmp8, %or.cond2
  br i1 %or.cond3, label %cleanup, label %lor.lhs.false15

lor.lhs.false15:                                  ; preds = %lor.lhs.false9
  %cmp16 = icmp eq i32 %call4, 2012
  %cmp18 = icmp eq i32 %sub.i, 6
  %or.cond4 = and i1 %cmp18, %cmp16
  %or.cond5 = and i1 %cmp8, %or.cond4
  br i1 %or.cond5, label %cleanup, label %lor.lhs.false21

lor.lhs.false21:                                  ; preds = %lor.lhs.false15
  %cmp22 = icmp eq i32 %sub.i, 7
  br i1 %cmp22, label %land.lhs.true29, label %lor.lhs.false23

lor.lhs.false23:                                  ; preds = %lor.lhs.false21
  %1 = and i32 %sub.i, -2
  %or.cond6 = icmp eq i32 %1, 8
  %cmp28 = icmp eq i32 %cond.i, 2
  %or.cond7 = and i1 %cmp28, %or.cond6
  %or.cond8 = and i1 %cmp8, %or.cond7
  br i1 %or.cond8, label %cleanup, label %lor.lhs.false31

land.lhs.true29:                                  ; preds = %lor.lhs.false21
  br i1 %cmp8, label %cleanup, label %if.end

lor.lhs.false31:                                  ; preds = %lor.lhs.false23
  %cmp32 = icmp eq i32 %sub.i, 23
  br i1 %cmp32, label %land.lhs.true39, label %lor.lhs.false33

lor.lhs.false33:                                  ; preds = %lor.lhs.false31
  %or.cond10 = icmp eq i32 %1, 24
  %cmp40 = icmp eq i32 %call3, 2
  %2 = and i1 %or.cond10, %cmp40
  %or.cond14 = and i1 %2, %cmp28
  br i1 %or.cond14, label %cleanup, label %lor.lhs.false41

land.lhs.true39:                                  ; preds = %lor.lhs.false31
  %cmp40.old = icmp eq i32 %call3, 2
  br i1 %cmp40.old, label %cleanup, label %if.end

lor.lhs.false41:                                  ; preds = %lor.lhs.false33
  %cmp42 = icmp eq i32 %sub.i, 8
  br i1 %cmp42, label %land.lhs.true49, label %lor.lhs.false43

lor.lhs.false43:                                  ; preds = %lor.lhs.false41
  %3 = add i32 %sub.i, -9
  %or.cond16 = icmp ult i32 %3, 2
  %cmp50 = icmp eq i32 %call3, 3
  %4 = and i1 %or.cond16, %cmp50
  %or.cond20 = and i1 %4, %cmp28
  br i1 %or.cond20, label %cleanup, label %lor.lhs.false51

land.lhs.true49:                                  ; preds = %lor.lhs.false41
  %cmp50.old = icmp eq i32 %call3, 3
  br i1 %cmp50.old, label %cleanup, label %if.end

lor.lhs.false51:                                  ; preds = %lor.lhs.false43
  %cmp52 = icmp eq i32 %sub.i, 1
  br i1 %cmp52, label %land.lhs.true59, label %lor.lhs.false53

lor.lhs.false53:                                  ; preds = %lor.lhs.false51
  %or.cond22 = icmp eq i32 %1, 2
  %or.cond24 = and i1 %cmp28, %or.cond22
  %cmp60 = icmp eq i32 %call3, 5
  %or.cond26 = and i1 %cmp60, %or.cond24
  br i1 %or.cond26, label %cleanup, label %lor.lhs.false61

land.lhs.true59:                                  ; preds = %lor.lhs.false51
  %cmp60.old = icmp eq i32 %call3, 5
  br i1 %cmp60.old, label %cleanup, label %if.end

lor.lhs.false61:                                  ; preds = %lor.lhs.false53
  %cmp62 = icmp eq i32 %sub.i, 9
  br i1 %cmp62, label %land.lhs.true69, label %lor.lhs.false63

lor.lhs.false63:                                  ; preds = %lor.lhs.false61
  %or.cond28 = icmp eq i32 %1, 10
  %or.cond30 = and i1 %cmp28, %or.cond28
  %or.cond32 = and i1 %cmp60, %or.cond30
  br i1 %or.cond32, label %cleanup, label %lor.lhs.false71

land.lhs.true69:                                  ; preds = %lor.lhs.false61
  br i1 %cmp60, label %cleanup, label %if.end

lor.lhs.false71:                                  ; preds = %lor.lhs.false63
  %cmp72 = icmp eq i32 %sub.i, 12
  br i1 %cmp72, label %land.lhs.true79, label %lor.lhs.false73

lor.lhs.false73:                                  ; preds = %lor.lhs.false71
  %5 = add i32 %sub.i, -13
  %or.cond34 = icmp ult i32 %5, 2
  %cmp80 = icmp eq i32 %call3, 6
  %6 = and i1 %or.cond34, %cmp80
  %or.cond38 = and i1 %6, %cmp28
  br i1 %or.cond38, label %cleanup, label %lor.lhs.false81

land.lhs.true79:                                  ; preds = %lor.lhs.false71
  %cmp80.old = icmp eq i32 %call3, 6
  br i1 %cmp80.old, label %cleanup, label %if.end

lor.lhs.false81:                                  ; preds = %lor.lhs.false73
  %cmp82 = icmp eq i32 %sub.i, 4
  br i1 %cmp82, label %land.lhs.true89, label %lor.lhs.false83

lor.lhs.false83:                                  ; preds = %lor.lhs.false81
  %7 = add i32 %sub.i, -5
  %or.cond40 = icmp ult i32 %7, 2
  %cmp90 = icmp eq i32 %call3, 11
  %8 = and i1 %or.cond40, %cmp90
  %or.cond44 = and i1 %8, %cmp28
  br i1 %or.cond44, label %cleanup, label %if.end

land.lhs.true89:                                  ; preds = %lor.lhs.false81
  %cmp90.old = icmp eq i32 %call3, 11
  br i1 %cmp90.old, label %cleanup, label %if.end

if.end:                                           ; preds = %land.lhs.true89, %lor.lhs.false83, %land.lhs.true69, %land.lhs.true79, %land.lhs.true49, %land.lhs.true59, %land.lhs.true29, %land.lhs.true39
  %sub.i.sink = phi i32 [ %sub.i, %land.lhs.true39 ], [ %sub.i, %land.lhs.true29 ], [ %sub.i, %land.lhs.true59 ], [ %sub.i, %land.lhs.true49 ], [ %sub.i, %land.lhs.true79 ], [ %sub.i, %land.lhs.true69 ], [ %sub.i, %lor.lhs.false83 ], [ 4, %land.lhs.true89 ]
  %call91100 = tail call fastcc noundef zeroext i1 @_ZN8QuantLib12_GLOBAL__N_128isExtraHolidaySettlementImplEiNS_5MonthEi(i32 noundef %sub.i.sink, i32 noundef %call3, i32 noundef %call4)
  %not.phi.call = xor i1 %call91100, true
  br label %cleanup

cleanup:                                          ; preds = %if.end, %entry, %land.lhs.true29, %land.lhs.true39, %land.lhs.true49, %land.lhs.true59, %land.lhs.true69, %land.lhs.true79, %land.lhs.true89, %lor.lhs.false, %lor.lhs.false9, %lor.lhs.false15, %lor.lhs.false23, %lor.lhs.false33, %lor.lhs.false43, %lor.lhs.false53, %lor.lhs.false63, %lor.lhs.false73, %lor.lhs.false83
  %retval.0 = phi i1 [ false, %lor.lhs.false83 ], [ false, %lor.lhs.false73 ], [ false, %lor.lhs.false63 ], [ false, %lor.lhs.false53 ], [ false, %lor.lhs.false43 ], [ false, %lor.lhs.false33 ], [ false, %lor.lhs.false23 ], [ false, %lor.lhs.false15 ], [ false, %lor.lhs.false9 ], [ false, %lor.lhs.false ], [ false, %land.lhs.true89 ], [ false, %land.lhs.true79 ], [ false, %land.lhs.true69 ], [ false, %land.lhs.true59 ], [ false, %land.lhs.true49 ], [ false, %land.lhs.true39 ], [ false, %land.lhs.true29 ], [ false, %entry ], [ %not.phi.call, %if.end ]
  ret i1 %retval.0
}